target datalayout = "e-m:e-p270:32:32-p271:32:32-p272:64:64-i64:64-i128:128-f80:128-n8:16:32:64-S128"
target triple = "x86_64-pc-linux-gnu"

%struct._php_core_globals = type { i64, i8, i8, i8, i8, i8, i8, i8, i8, ptr, ptr, i64, i64, i64, ptr, ptr, ptr, ptr, ptr, i8, ptr, ptr, ptr, ptr, i64, ptr, ptr, ptr, ptr, ptr, ptr, ptr, %struct._arg_separators, ptr, %struct._zend_array, i16, i8, i8, %struct._zend_llist, [6 x %struct._zval_struct], i8, i8, i8, i8, i8, ptr, ptr, i64, [8 x i8], i8, i8, i8, i8, i8, i8, i32, i32, ptr, ptr, ptr, ptr, i64, i64, ptr, i64, ptr, ptr, i8, i8, i8, i8, i8, i8, i64, ptr, i64, i64 }
%struct._arg_separators = type { ptr, ptr }
%struct._zend_array = type { %struct._zend_refcounted_h, %union.anon.0, i32, %union.anon.1, i32, i32, i32, i32, i64, ptr }
%struct._zend_refcounted_h = type { i32, %union.anon }
%union.anon = type { i32 }
%union.anon.0 = type { i32 }
%union.anon.1 = type { ptr }
%struct._zend_llist = type { ptr, ptr, i64, i64, ptr, i8, ptr }
%struct._zval_struct = type { %union._zend_value, %union.anon.3, %union.anon.6 }
%union._zend_value = type { i64 }
%union.anon.3 = type { i32 }
%union.anon.6 = type { i32 }
%struct._zend_string = type { %struct._zend_refcounted_h, i64, i64, [1 x i8] }

@core_globals = dso_local global %struct._php_core_globals zeroinitializer, align 8
@.str.6 = private unnamed_addr constant [7 x i8] c"syslog\00", align 1

; Function Attrs: alwaysinline nounwind uwtable
define internal zeroext i1 @zend_string_equals_cstr(ptr noundef %0, ptr noundef %1, i64 noundef %2) #5 {
  %4 = alloca ptr, align 8
  %5 = alloca ptr, align 8
  %6 = alloca i64, align 8
  store ptr %0, ptr %4, align 8, !tbaa !54
  store ptr %1, ptr %5, align 8, !tbaa !14
  store i64 %2, ptr %6, align 8, !tbaa !15
  %7 = load ptr, ptr %4, align 8, !tbaa !54
  %8 = getelementptr inbounds nuw %struct._zend_string, ptr %7, i32 0, i32 2
  %9 = load i64, ptr %8, align 8, !tbaa !60
  %10 = load i64, ptr %6, align 8, !tbaa !15
  %11 = icmp eq i64 %9, %10
  br i1 %11, label %12, label %21

12:                                               ; preds = %3
  %13 = load ptr, ptr %4, align 8, !tbaa !54
  %14 = getelementptr inbounds nuw %struct._zend_string, ptr %13, i32 0, i32 3
  %15 = getelementptr inbounds [1 x i8], ptr %14, i64 0, i64 0
  %16 = load ptr, ptr %5, align 8, !tbaa !14
  %17 = load i64, ptr %6, align 8, !tbaa !15
  %18 = call i32 @memcmp(ptr noundef %15, ptr noundef %16, i64 noundef %17) #19
  %19 = icmp ne i32 %18, 0
  %20 = xor i1 %19, true
  br label %21

21:                                               ; preds = %12, %3
  %22 = phi i1 [ false, %3 ], [ %20, %12 ]
  ret i1 %22
}

; Function Attrs: nounwind uwtable
define internal i32 @OnUpdateErrorLog(ptr noundef %0, ptr noundef %1, ptr noundef %2, ptr noundef %3, ptr noundef %4, i32 noundef %5) #1 {
  %7 = alloca i32, align 4
  %8 = alloca ptr, align 8
  %9 = alloca ptr, align 8
  %10 = alloca ptr, align 8
  %11 = alloca ptr, align 8
  %12 = alloca ptr, align 8
  %13 = alloca i32, align 4
  store ptr %0, ptr %8, align 8, !tbaa !243
  store ptr %1, ptr %9, align 8, !tbaa !54
  store ptr %2, ptr %10, align 8, !tbaa !56
  store ptr %3, ptr %11, align 8, !tbaa !56
  store ptr %4, ptr %12, align 8, !tbaa !56
  store i32 %5, ptr %13, align 4, !tbaa !50
  %14 = load i32, ptr %13, align 4, !tbaa !50
  %15 = icmp eq i32 %14, 16
  br i1 %15, label %19, label %16

16:                                               ; preds = %6
  %17 = load i32, ptr %13, align 4, !tbaa !50
  %18 = icmp eq i32 %17, 32
  br i1 %18, label %19, label %36

19:                                               ; preds = %16, %6
  %20 = load ptr, ptr %9, align 8, !tbaa !54
  %21 = icmp ne ptr %20, null
  br i1 %21, label %22, label %36

22:                                               ; preds = %19
  %23 = load ptr, ptr %9, align 8, !tbaa !54
  %24 = call zeroext i1 @zend_string_equals_cstr(ptr noundef %23, ptr noundef @.str.6, i64 noundef 6)
  br i1 %24, label %25, label %36

25:                                               ; preds = %22
  %26 = load ptr, ptr getelementptr inbounds nuw (%struct._php_core_globals, ptr @core_globals, i32 0, i32 18), align 8, !tbaa !132
  %27 = icmp ne ptr %26, null
  br i1 %27, label %28, label %35

28:                                               ; preds = %25
  %29 = load ptr, ptr %9, align 8, !tbaa !54
  %30 = getelementptr inbounds nuw %struct._zend_string, ptr %29, i32 0, i32 3
  %31 = getelementptr inbounds [1 x i8], ptr %30, i64 0, i64 0
  %32 = call i32 @php_check_open_basedir(ptr noundef %31)
  %33 = icmp ne i32 %32, 0
  br i1 %33, label %34, label %35

34:                                               ; preds = %28
  store i32 -1, ptr %7, align 4
  br label %44

35:                                               ; preds = %28, %25
  br label %36

36:                                               ; preds = %35, %22, %19, %16
  %37 = load ptr, ptr %8, align 8, !tbaa !243
  %38 = load ptr, ptr %9, align 8, !tbaa !54
  %39 = load ptr, ptr %10, align 8, !tbaa !56
  %40 = load ptr, ptr %11, align 8, !tbaa !56
  %41 = load ptr, ptr %12, align 8, !tbaa !56
  %42 = load i32, ptr %13, align 4, !tbaa !50
  %43 = call i32 @OnUpdateString(ptr noundef %37, ptr noundef %38, ptr noundef %39, ptr noundef %40, ptr noundef %41, i32 noundef %42)
  store i32 0, ptr %7, align 4
  br label %44

44:                                               ; preds = %36, %34
  %45 = load i32, ptr %7, align 4
  ret i32 %45
}