; Function Attrs: nounwind uwtable
define internal range(i32 -1, 1) i32 @OnUpdateErrorLog(ptr noundef %0, ptr noundef %1, ptr noundef %2, ptr noundef %3, ptr noundef %4, i32 noundef %5) #2 {
  %7 = icmp eq i32 %5, 16
  %8 = icmp eq i32 %5, 32
  %or.cond = or i1 %7, %8
  %9 = icmp ne ptr %1, null
  %or.cond3 = and i1 %9, %or.cond
  br i1 %or.cond3, label %10, label %zend_string_equals_cstr.exit.thread

10:                                               ; preds = %6
  %11 = getelementptr inbounds nuw i8, ptr %1, i64 16
  %12 = load i64, ptr %11, align 8, !tbaa !52
  %13 = icmp eq i64 %12, 6
  br i1 %13, label %zend_string_equals_cstr.exit, label %zend_string_equals_cstr.exit.thread

zend_string_equals_cstr.exit:                     ; preds = %10
  %14 = getelementptr inbounds nuw i8, ptr %1, i64 24
  %bcmp.i = tail call i32 @bcmp(ptr noundef nonnull dereferenceable(6) %14, ptr noundef nonnull dereferenceable(6) @.str.6, i64 6)
  %.not.i = icmp eq i32 %bcmp.i, 0
  %15 = load ptr, ptr getelementptr inbounds nuw (i8, ptr @core_globals, i64 88), align 8
  %16 = icmp ne ptr %15, null
  %or.cond5 = select i1 %.not.i, i1 %16, i1 false
  br i1 %or.cond5, label %17, label %zend_string_equals_cstr.exit.thread

17:                                               ; preds = %zend_string_equals_cstr.exit
  %18 = tail call i32 @php_check_open_basedir(ptr noundef nonnull %14) #28
  %.not = icmp eq i32 %18, 0
  br i1 %.not, label %zend_string_equals_cstr.exit.thread, label %20

zend_string_equals_cstr.exit.thread:              ; preds = %10, %17, %6, %zend_string_equals_cstr.exit
  %19 = tail call i32 @OnUpdateString(ptr noundef %0, ptr noundef %1, ptr noundef %2, ptr noundef %3, ptr noundef %4, i32 noundef %5) #28
  br label %20

20:                                               ; preds = %17, %zend_string_equals_cstr.exit.thread
  %.0 = phi i32 [ 0, %zend_string_equals_cstr.exit.thread ], [ -1, %17 ]
  ret i32 %.0
}